target datalayout = "e-m:e-p270:32:32-p271:32:32-p272:64:64-i64:64-i128:128-f80:128-n8:16:32:64-S128"
target triple = "x86_64-pc-linux-gnu"

%union.pthread_mutexattr_t = type { i32 }

; Function Attrs: nounwind uwtable
define dso_local i32 @online_cpus() #0 {
  %1 = alloca i32, align 4
  %2 = alloca i64, align 8
  %3 = alloca i32, align 4
  call void @llvm.lifetime.start.p0(i64 8, ptr %2) #3
  %4 = call i64 @sysconf(i32 noundef 84) #3
  store i64 %4, ptr %2, align 8, !tbaa !4
  %5 = icmp sgt i64 %4, 0
  br i1 %5, label %6, label %9

6:                                                ; preds = %0
  %7 = load i64, ptr %2, align 8, !tbaa !4
  %8 = trunc i64 %7 to i32
  store i32 %8, ptr %1, align 4
  store i32 1, ptr %3, align 4
  br label %10

9:                                                ; preds = %0
  store i32 1, ptr %1, align 4
  store i32 1, ptr %3, align 4
  br label %10

10:                                               ; preds = %9, %6
  call void @llvm.lifetime.end.p0(i64 8, ptr %2) #3
  %11 = load i32, ptr %1, align 4
  ret i32 %11
}

; Function Attrs: nocallback nofree nosync nounwind willreturn memory(argmem: readwrite)
declare void @llvm.lifetime.start.p0(i64 immarg, ptr captures(none)) #1

; Function Attrs: nounwind
declare i64 @sysconf(i32 noundef) #2

; Function Attrs: nocallback nofree nosync nounwind willreturn memory(argmem: readwrite)
declare void @llvm.lifetime.end.p0(i64 immarg, ptr captures(none)) #1

; Function Attrs: nounwind uwtable
define dso_local i32 @init_recursive_mutex(ptr noundef %0) #0 {
  %2 = alloca ptr, align 8
  %3 = alloca %union.pthread_mutexattr_t, align 4
  %4 = alloca i32, align 4
  store ptr %0, ptr %2, align 8, !tbaa !8
  call void @llvm.lifetime.start.p0(i64 4, ptr %3) #3
  call void @llvm.lifetime.start.p0(i64 4, ptr %4) #3
  %5 = call i32 @pthread_mutexattr_init(ptr noundef %3) #3
  store i32 %5, ptr %4, align 4, !tbaa !10
  %6 = load i32, ptr %4, align 4, !tbaa !10
  %7 = icmp ne i32 %6, 0
  br i1 %7, label %17, label %8

8:                                                ; preds = %1
  %9 = call i32 @pthread_mutexattr_settype(ptr noundef %3, i32 noundef 1) #3
  store i32 %9, ptr %4, align 4, !tbaa !10
  %10 = load i32, ptr %4, align 4, !tbaa !10
  %11 = icmp ne i32 %10, 0
  br i1 %11, label %15, label %12

12:                                               ; preds = %8
  %13 = load ptr, ptr %2, align 8, !tbaa !8
  %14 = call i32 @pthread_mutex_init(ptr noundef %13, ptr noundef %3) #3
  store i32 %14, ptr %4, align 4, !tbaa !10
  br label %15

15:                                               ; preds = %12, %8
  %16 = call i32 @pthread_mutexattr_destroy(ptr noundef %3) #3
  br label %17

17:                                               ; preds = %15, %1
  %18 = load i32, ptr %4, align 4, !tbaa !10
  call void @llvm.lifetime.end.p0(i64 4, ptr %4) #3
  call void @llvm.lifetime.end.p0(i64 4, ptr %3) #3
  ret i32 %18
}

; Function Attrs: nounwind
declare i32 @pthread_mutexattr_init(ptr noundef) #2

; Function Attrs: nounwind
declare i32 @pthread_mutexattr_settype(ptr noundef, i32 noundef) #2

; Function Attrs: nounwind
declare i32 @pthread_mutex_init(ptr noundef, ptr noundef) #2

; Function Attrs: nounwind
declare i32 @pthread_mutexattr_destroy(ptr noundef) #2


!llvm.module.flags = !{!0, !1, !2, !3}

!0 = !{i32 1, !"wchar_size", i32 4}
!1 = !{i32 8, !"PIC Level", i32 2}
!2 = !{i32 7, !"PIE Level", i32 2}
!3 = !{i32 7, !"uwtable", i32 2}
!4 = !{!5, !5, i64 0}
!5 = !{!"long", !6, i64 0}
!6 = !{!"omnipotent char", !7, i64 0}
!7 = !{!"Simple C/C++ TBAA"}
!8 = !{!9, !9, i64 0}
!9 = !{!"any pointer", !6, i64 0}
!10 = !{!11, !11, i64 0}
!11 = !{!"int", !6, i64 0}
